target datalayout = "e-m:e-p270:32:32-p271:32:32-p272:64:64-i64:64-i128:128-f80:128-n8:16:32:64-S128"
target triple = "x86_64-pc-linux-gnu"

%class.ZPage = type { i8, i8, i8, i8, i32, i32, %class.ZVirtualMemory, i64, %class.ZLiveMap, %class.ZRememberedSet, i64, %class.ZPhysicalMemory, %class.ZListNode }
%class.ZVirtualMemory = type { i64, i64 }
%class.ZLiveMap = type { i32, i32, i64, i64, i64, %class.ZBitMap, i64 }
%class.ZBitMap = type { %class.CHeapBitMap.base, [7 x i8] }
%class.CHeapBitMap.base = type <{ %class.GrowableBitMap, i8 }>
%class.GrowableBitMap = type { %class.BitMap }
%class.BitMap = type { ptr, i64 }
%class.ZRememberedSet = type { [2 x %class.ZMovableBitMap] }
%class.ZMovableBitMap = type { %class.CHeapBitMap.base, [7 x i8] }
%class.ZPhysicalMemory = type { %class.GrowableArrayCHeap }
%class.GrowableArrayCHeap = type { %class.GrowableArrayWithAllocator }
%class.GrowableArrayWithAllocator = type { %class.GrowableArrayView }
%class.GrowableArrayView = type { %class.GrowableArrayBase, ptr }
%class.GrowableArrayBase = type { i32, i32 }
%class.ZListNode = type { ptr, ptr }

@g_assert_poison = external global ptr, align 8
@.str = private unnamed_addr constant [33 x i8] c"src/hotspot/share/gc/z/zPage.cpp\00", align 1
@.str.14 = private unnamed_addr constant [58 x i8] c"guarantee(live_objects == _livemap.live_objects()) failed\00", align 1
@.str.15 = private unnamed_addr constant [31 x i8] c"Invalid number of live objects\00", align 1
@.str.16 = private unnamed_addr constant [54 x i8] c"guarantee(live_bytes == _livemap.live_bytes()) failed\00", align 1
@.str.17 = private unnamed_addr constant [29 x i8] c"Invalid number of live bytes\00", align 1

; Function Attrs: mustprogress nounwind uwtable
define linkonce_odr hidden noundef i64 @_ZNK8ZLiveMap10live_bytesEv(ptr noundef nonnull align 8 dereferenceable(64) %0) #1 comdat align 2 {
  %2 = alloca ptr, align 8
  store ptr %0, ptr %2, align 8
  %3 = load ptr, ptr %2, align 8
  %4 = getelementptr inbounds %class.ZLiveMap, ptr %3, i32 0, i32 2
  %5 = load volatile i64, ptr %4, align 8
  ret i64 %5
}

; Function Attrs: mustprogress nounwind uwtable
define linkonce_odr hidden noundef i32 @_ZNK8ZLiveMap12live_objectsEv(ptr noundef nonnull align 8 dereferenceable(64) %0) #1 comdat align 2 {
  %2 = alloca ptr, align 8
  store ptr %0, ptr %2, align 8
  %3 = load ptr, ptr %2, align 8
  %4 = getelementptr inbounds %class.ZLiveMap, ptr %3, i32 0, i32 1
  %5 = load volatile i32, ptr %4, align 4
  ret i32 %5
}

; Function Attrs: mustprogress nounwind uwtable
define hidden void @_ZNK5ZPage11verify_liveEjmb(ptr noundef nonnull align 8 dereferenceable(192) %0, i32 noundef %1, i64 noundef %2, i1 noundef zeroext %3) #1 align 2 {
  %5 = alloca ptr, align 8
  %6 = alloca i32, align 4
  %7 = alloca i64, align 8
  %8 = alloca i8, align 1
  store ptr %0, ptr %5, align 8
  store i32 %1, ptr %6, align 4
  store i64 %2, ptr %7, align 8
  %9 = zext i1 %3 to i8
  store i8 %9, ptr %8, align 1
  %10 = load ptr, ptr %5, align 8
  %11 = load i8, ptr %8, align 1
  %12 = trunc i8 %11 to i1
  br i1 %12, label %16, label %13

13:                                               ; preds = %4
  br label %14

14:                                               ; preds = %13
  br label %15

15:                                               ; preds = %14
  br label %16

16:                                               ; preds = %15, %4
  br label %17

17:                                               ; preds = %16
  %18 = load i32, ptr %6, align 4
  %19 = getelementptr inbounds %class.ZPage, ptr %10, i32 0, i32 8
  %20 = call noundef i32 @_ZNK8ZLiveMap12live_objectsEv(ptr noundef nonnull align 8 dereferenceable(64) %19)
  %21 = icmp eq i32 %18, %20
  br i1 %21, label %24, label %22

22:                                               ; preds = %17
  %23 = load ptr, ptr @g_assert_poison, align 8
  store i8 88, ptr %23, align 1
  call void (ptr, i32, ptr, ptr, ...) @_Z15report_vm_errorPKciS0_S0_z(ptr noundef @.str, i32 noundef 309, ptr noundef @.str.14, ptr noundef @.str.15) #9
  unreachable

24:                                               ; preds = %17
  br label %25

25:                                               ; preds = %24
  br label %26

26:                                               ; preds = %25
  %27 = load i64, ptr %7, align 8
  %28 = getelementptr inbounds %class.ZPage, ptr %10, i32 0, i32 8
  %29 = call noundef i64 @_ZNK8ZLiveMap10live_bytesEv(ptr noundef nonnull align 8 dereferenceable(64) %28)
  %30 = icmp eq i64 %27, %29
  br i1 %30, label %33, label %31

31:                                               ; preds = %26
  %32 = load ptr, ptr @g_assert_poison, align 8
  store i8 88, ptr %32, align 1
  call void (ptr, i32, ptr, ptr, ...) @_Z15report_vm_errorPKciS0_S0_z(ptr noundef @.str, i32 noundef 310, ptr noundef @.str.16, ptr noundef @.str.17) #9
  unreachable

33:                                               ; preds = %26
  br label %34

34:                                               ; preds = %33
  ret void
}