; Function Attrs: mustprogress nounwind uwtable
define hidden void @_ZNK5ZPage11verify_liveEjmb(ptr noundef nonnull align 8 dereferenceable(192) %0, i32 noundef %1, i64 noundef %2, i1 noundef zeroext %3) local_unnamed_addr #0 align 2 {
  %5 = getelementptr inbounds i8, ptr %0, i64 44
  %6 = load volatile i32, ptr %5, align 4
  %7 = icmp eq i32 %6, %1
  br i1 %7, label %10, label %8

8:                                                ; preds = %4
  %9 = load ptr, ptr @g_assert_poison, align 8
  store i8 88, ptr %9, align 1
  tail call void (ptr, i32, ptr, ptr, ...) @_Z15report_vm_errorPKciS0_S0_z(ptr noundef nonnull @.str, i32 noundef 309, ptr noundef nonnull @.str.14, ptr noundef nonnull @.str.15) #12
  unreachable

10:                                               ; preds = %4
  %11 = getelementptr inbounds i8, ptr %0, i64 48
  %12 = load volatile i64, ptr %11, align 8
  %13 = icmp eq i64 %12, %2
  br i1 %13, label %16, label %14

14:                                               ; preds = %10
  %15 = load ptr, ptr @g_assert_poison, align 8
  store i8 88, ptr %15, align 1
  tail call void (ptr, i32, ptr, ptr, ...) @_Z15report_vm_errorPKciS0_S0_z(ptr noundef nonnull @.str, i32 noundef 310, ptr noundef nonnull @.str.16, ptr noundef nonnull @.str.17) #12
  unreachable

16:                                               ; preds = %10
  ret void
}